target datalayout = "e-m:e-p270:32:32-p271:32:32-p272:64:64-i64:64-i128:128-f80:128-n8:16:32:64-S128"
target triple = "x86_64-pc-linux-gnu"

%struct.st__table = type { ptr, ptr, i32, i32, i32, i32, double, ptr }
%struct.st__table_entry = type { ptr, ptr, ptr }
%struct.st__generator = type { ptr, ptr, i32 }

; Function Attrs: nounwind uwtable
define i32 @st__gen_int(ptr noundef %0, ptr noundef %1, ptr noundef %2) #0 {
  %4 = alloca i32, align 4
  %5 = alloca ptr, align 8
  %6 = alloca ptr, align 8
  %7 = alloca ptr, align 8
  %8 = alloca i32, align 4
  %9 = alloca i32, align 4
  store ptr %0, ptr %5, align 8, !tbaa !66
  store ptr %1, ptr %6, align 8, !tbaa !33
  store ptr %2, ptr %7, align 8, !tbaa !57
  call void @llvm.lifetime.start.p0(i64 4, ptr %8) #6
  %10 = load ptr, ptr %5, align 8, !tbaa !66
  %11 = getelementptr inbounds nuw %struct.st__generator, ptr %10, i32 0, i32 1
  %12 = load ptr, ptr %11, align 8, !tbaa !70
  %13 = icmp eq ptr %12, null
  br i1 %13, label %14, label %64

14:                                               ; preds = %3
  %15 = load ptr, ptr %5, align 8, !tbaa !66
  %16 = getelementptr inbounds nuw %struct.st__generator, ptr %15, i32 0, i32 2
  %17 = load i32, ptr %16, align 8, !tbaa !71
  store i32 %17, ptr %8, align 4, !tbaa !7
  br label %18

18:                                               ; preds = %54, %14
  %19 = load i32, ptr %8, align 4, !tbaa !7
  %20 = load ptr, ptr %5, align 8, !tbaa !66
  %21 = getelementptr inbounds nuw %struct.st__generator, ptr %20, i32 0, i32 0
  %22 = load ptr, ptr %21, align 8, !tbaa !68
  %23 = getelementptr inbounds nuw %struct.st__table, ptr %22, i32 0, i32 2
  %24 = load i32, ptr %23, align 8, !tbaa !21
  %25 = icmp slt i32 %19, %24
  br i1 %25, label %26, label %57

26:                                               ; preds = %18
  %27 = load ptr, ptr %5, align 8, !tbaa !66
  %28 = getelementptr inbounds nuw %struct.st__generator, ptr %27, i32 0, i32 0
  %29 = load ptr, ptr %28, align 8, !tbaa !68
  %30 = getelementptr inbounds nuw %struct.st__table, ptr %29, i32 0, i32 7
  %31 = load ptr, ptr %30, align 8, !tbaa !22
  %32 = load i32, ptr %8, align 4, !tbaa !7
  %33 = sext i32 %32 to i64
  %34 = getelementptr inbounds ptr, ptr %31, i64 %33
  %35 = load ptr, ptr %34, align 8, !tbaa !23
  %36 = icmp ne ptr %35, null
  br i1 %36, label %37, label %53

37:                                               ; preds = %26
  %38 = load i32, ptr %8, align 4, !tbaa !7
  %39 = add nsw i32 %38, 1
  %40 = load ptr, ptr %5, align 8, !tbaa !66
  %41 = getelementptr inbounds nuw %struct.st__generator, ptr %40, i32 0, i32 2
  store i32 %39, ptr %41, align 8, !tbaa !71
  %42 = load ptr, ptr %5, align 8, !tbaa !66
  %43 = getelementptr inbounds nuw %struct.st__generator, ptr %42, i32 0, i32 0
  %44 = load ptr, ptr %43, align 8, !tbaa !68
  %45 = getelementptr inbounds nuw %struct.st__table, ptr %44, i32 0, i32 7
  %46 = load ptr, ptr %45, align 8, !tbaa !22
  %47 = load i32, ptr %8, align 4, !tbaa !7
  %48 = sext i32 %47 to i64
  %49 = getelementptr inbounds ptr, ptr %46, i64 %48
  %50 = load ptr, ptr %49, align 8, !tbaa !23
  %51 = load ptr, ptr %5, align 8, !tbaa !66
  %52 = getelementptr inbounds nuw %struct.st__generator, ptr %51, i32 0, i32 1
  store ptr %50, ptr %52, align 8, !tbaa !70
  br label %57

53:                                               ; preds = %26
  br label %54

54:                                               ; preds = %53
  %55 = load i32, ptr %8, align 4, !tbaa !7
  %56 = add nsw i32 %55, 1
  store i32 %56, ptr %8, align 4, !tbaa !7
  br label %18, !llvm.loop !73

57:                                               ; preds = %37, %18
  %58 = load ptr, ptr %5, align 8, !tbaa !66
  %59 = getelementptr inbounds nuw %struct.st__generator, ptr %58, i32 0, i32 1
  %60 = load ptr, ptr %59, align 8, !tbaa !70
  %61 = icmp eq ptr %60, null
  br i1 %61, label %62, label %63

62:                                               ; preds = %57
  store i32 0, ptr %4, align 4
  store i32 1, ptr %9, align 4
  br label %89

63:                                               ; preds = %57
  br label %64

64:                                               ; preds = %63, %3
  %65 = load ptr, ptr %5, align 8, !tbaa !66
  %66 = getelementptr inbounds nuw %struct.st__generator, ptr %65, i32 0, i32 1
  %67 = load ptr, ptr %66, align 8, !tbaa !70
  %68 = getelementptr inbounds nuw %struct.st__table_entry, ptr %67, i32 0, i32 0
  %69 = load ptr, ptr %68, align 8, !tbaa !36
  %70 = load ptr, ptr %6, align 8, !tbaa !33
  store ptr %69, ptr %70, align 8, !tbaa !32
  %71 = load ptr, ptr %7, align 8, !tbaa !57
  %72 = icmp ne ptr %71, null
  br i1 %72, label %73, label %81

73:                                               ; preds = %64
  %74 = load ptr, ptr %5, align 8, !tbaa !66
  %75 = getelementptr inbounds nuw %struct.st__generator, ptr %74, i32 0, i32 1
  %76 = load ptr, ptr %75, align 8, !tbaa !70
  %77 = getelementptr inbounds nuw %struct.st__table_entry, ptr %76, i32 0, i32 1
  %78 = load ptr, ptr %77, align 8, !tbaa !38
  %79 = ptrtoint ptr %78 to i64
  %80 = load ptr, ptr %7, align 8, !tbaa !57
  store i64 %79, ptr %80, align 8, !tbaa !59
  br label %81

81:                                               ; preds = %73, %64
  %82 = load ptr, ptr %5, align 8, !tbaa !66
  %83 = getelementptr inbounds nuw %struct.st__generator, ptr %82, i32 0, i32 1
  %84 = load ptr, ptr %83, align 8, !tbaa !70
  %85 = getelementptr inbounds nuw %struct.st__table_entry, ptr %84, i32 0, i32 2
  %86 = load ptr, ptr %85, align 8, !tbaa !27
  %87 = load ptr, ptr %5, align 8, !tbaa !66
  %88 = getelementptr inbounds nuw %struct.st__generator, ptr %87, i32 0, i32 1
  store ptr %86, ptr %88, align 8, !tbaa !70
  store i32 1, ptr %4, align 4
  store i32 1, ptr %9, align 4
  br label %89

89:                                               ; preds = %81, %62
  call void @llvm.lifetime.end.p0(i64 4, ptr %8) #6
  %90 = load i32, ptr %4, align 4
  ret i32 %90
}