; Function Attrs: nofree norecurse nosync nounwind memory(read, argmem: readwrite, inaccessiblemem: none) uwtable
define range(i32 0, 2) i32 @st__gen_int(ptr noundef captures(none) %0, ptr noundef writeonly captures(none) %1, ptr noundef writeonly %2) local_unnamed_addr #8 {
  %4 = getelementptr inbounds nuw i8, ptr %0, i64 8
  %5 = load ptr, ptr %4, align 8, !tbaa !61
  %6 = icmp eq ptr %5, null
  br i1 %6, label %7, label %23

7:                                                ; preds = %3
  %8 = getelementptr inbounds nuw i8, ptr %0, i64 16
  %9 = load i32, ptr %8, align 8, !tbaa !62
  %10 = load ptr, ptr %0, align 8, !tbaa !58
  %11 = getelementptr inbounds nuw i8, ptr %10, i64 16
  %12 = load i32, ptr %11, align 8, !tbaa !16
  %13 = icmp slt i32 %9, %12
  br i1 %13, label %.lr.ph, label %._crit_edge

.lr.ph:                                           ; preds = %7
  %14 = getelementptr inbounds nuw i8, ptr %10, i64 40
  %15 = load ptr, ptr %14, align 8, !tbaa !17
  %16 = sext i32 %9 to i64
  %wide.trip.count = sext i32 %12 to i64
  br label %17

17:                                               ; preds = %.lr.ph, %22
  %indvars.iv = phi i64 [ %16, %.lr.ph ], [ %indvars.iv.next, %22 ]
  %18 = getelementptr inbounds ptr, ptr %15, i64 %indvars.iv
  %19 = load ptr, ptr %18, align 8, !tbaa !18
  %.not = icmp eq ptr %19, null
  br i1 %.not, label %22, label %.thread

.thread:                                          ; preds = %17
  %20 = trunc nsw i64 %indvars.iv to i32
  %21 = add nsw i32 %20, 1
  store i32 %21, ptr %8, align 8, !tbaa !62
  br label %23

22:                                               ; preds = %17
  %indvars.iv.next = add nsw i64 %indvars.iv, 1
  %exitcond.not = icmp eq i64 %indvars.iv.next, %wide.trip.count
  br i1 %exitcond.not, label %._crit_edge, label %17, !llvm.loop !64

23:                                               ; preds = %.thread, %3
  %24 = phi ptr [ %19, %.thread ], [ %5, %3 ]
  %25 = load ptr, ptr %24, align 8, !tbaa !26
  store ptr %25, ptr %1, align 8, !tbaa !29
  %.not22 = icmp eq ptr %2, null
  br i1 %.not22, label %30, label %26

26:                                               ; preds = %23
  %27 = getelementptr inbounds nuw i8, ptr %24, i64 8
  %28 = load ptr, ptr %27, align 8, !tbaa !28
  %29 = ptrtoint ptr %28 to i64
  store i64 %29, ptr %2, align 8, !tbaa !51
  br label %30

30:                                               ; preds = %26, %23
  %31 = getelementptr inbounds nuw i8, ptr %24, i64 16
  %32 = load ptr, ptr %31, align 8, !tbaa !20
  store ptr %32, ptr %4, align 8, !tbaa !61
  br label %._crit_edge

._crit_edge:                                      ; preds = %22, %7, %30
  %.020 = phi i32 [ 1, %30 ], [ 0, %7 ], [ 0, %22 ]
  ret i32 %.020
}